target datalayout = "e-m:e-p270:32:32-p271:32:32-p272:64:64-i64:64-i128:128-f80:128-n8:16:32:64-S128"
target triple = "x86_64-pc-linux-gnu"

@.str = private unnamed_addr constant [9 x i8] c"mismatch\00", align 1
@.str.1 = private unnamed_addr constant [33 x i8] c"no support in this configuration\00", align 1
@.str.2 = private unnamed_addr constant [26 x i8] c"failed to allocate memory\00", align 1
@.str.3 = private unnamed_addr constant [21 x i8] c"undefined type (bug)\00", align 1
@.str.4 = private unnamed_addr constant [28 x i8] c"internal parser error (bug)\00", align 1
@.str.5 = private unnamed_addr constant [18 x i8] c"stack error (bug)\00", align 1
@.str.6 = private unnamed_addr constant [25 x i8] c"undefined bytecode (bug)\00", align 1
@.str.7 = private unnamed_addr constant [26 x i8] c"unexpected bytecode (bug)\00", align 1
@.str.8 = private unnamed_addr constant [23 x i8] c"match-stack limit over\00", align 1
@.str.9 = private unnamed_addr constant [23 x i8] c"parse depth limit over\00", align 1
@.str.10 = private unnamed_addr constant [38 x i8] c"default multibyte-encoding is not set\00", align 1
@.str.11 = private unnamed_addr constant [59 x i8] c"can't convert to wide-char on specified multibyte-encoding\00", align 1
@.str.12 = private unnamed_addr constant [17 x i8] c"invalid argument\00", align 1
@.str.13 = private unnamed_addr constant [26 x i8] c"end pattern at left brace\00", align 1
@.str.14 = private unnamed_addr constant [28 x i8] c"end pattern at left bracket\00", align 1
@.str.15 = private unnamed_addr constant [17 x i8] c"empty char-class\00", align 1
@.str.16 = private unnamed_addr constant [28 x i8] c"premature end of char-class\00", align 1
@.str.17 = private unnamed_addr constant [22 x i8] c"end pattern at escape\00", align 1
@.str.18 = private unnamed_addr constant [20 x i8] c"end pattern at meta\00", align 1
@.str.19 = private unnamed_addr constant [23 x i8] c"end pattern at control\00", align 1
@.str.20 = private unnamed_addr constant [25 x i8] c"invalid meta-code syntax\00", align 1
@.str.21 = private unnamed_addr constant [28 x i8] c"invalid control-code syntax\00", align 1
@.str.22 = private unnamed_addr constant [33 x i8] c"char-class value at end of range\00", align 1
@.str.23 = private unnamed_addr constant [35 x i8] c"char-class value at start of range\00", align 1
@.str.24 = private unnamed_addr constant [40 x i8] c"unmatched range specifier in char-class\00", align 1
@.str.25 = private unnamed_addr constant [43 x i8] c"target of repeat operator is not specified\00", align 1
@.str.26 = private unnamed_addr constant [37 x i8] c"target of repeat operator is invalid\00", align 1
@.str.27 = private unnamed_addr constant [23 x i8] c"nested repeat operator\00", align 1
@.str.28 = private unnamed_addr constant [28 x i8] c"unmatched close parenthesis\00", align 1
@.str.29 = private unnamed_addr constant [39 x i8] c"end pattern with unmatched parenthesis\00", align 1
@.str.30 = private unnamed_addr constant [21 x i8] c"end pattern in group\00", align 1
@.str.31 = private unnamed_addr constant [23 x i8] c"undefined group option\00", align 1
@.str.32 = private unnamed_addr constant [27 x i8] c"invalid POSIX bracket type\00", align 1
@.str.33 = private unnamed_addr constant [31 x i8] c"invalid pattern in look-behind\00", align 1
@.str.34 = private unnamed_addr constant [35 x i8] c"invalid repeat range {lower,upper}\00", align 1
@.str.35 = private unnamed_addr constant [28 x i8] c"invalid conditional pattern\00", align 1
@.str.36 = private unnamed_addr constant [15 x i8] c"too big number\00", align 1
@.str.37 = private unnamed_addr constant [32 x i8] c"too big number for repeat range\00", align 1
@.str.38 = private unnamed_addr constant [44 x i8] c"upper is smaller than lower in repeat range\00", align 1
@.str.39 = private unnamed_addr constant [26 x i8] c"empty range in char class\00", align 1
@.str.40 = private unnamed_addr constant [51 x i8] c"mismatch multibyte code length in char-class range\00", align 1
@.str.41 = private unnamed_addr constant [45 x i8] c"too many multibyte code ranges are specified\00", align 1
@.str.42 = private unnamed_addr constant [32 x i8] c"too short multibyte code string\00", align 1
@.str.43 = private unnamed_addr constant [23 x i8] c"too big backref number\00", align 1
@.str.44 = private unnamed_addr constant [28 x i8] c"invalid backref number/name\00", align 1
@.str.45 = private unnamed_addr constant [49 x i8] c"numbered backref/call is not allowed. (use name)\00", align 1
@.str.46 = private unnamed_addr constant [17 x i8] c"too short digits\00", align 1
@.str.47 = private unnamed_addr constant [25 x i8] c"too long wide-char value\00", align 1
@.str.48 = private unnamed_addr constant [20 x i8] c"group name is empty\00", align 1
@.str.49 = private unnamed_addr constant [24 x i8] c"invalid group name <%n>\00", align 1
@.str.50 = private unnamed_addr constant [32 x i8] c"invalid char in group name <%n>\00", align 1
@.str.51 = private unnamed_addr constant [30 x i8] c"undefined name <%n> reference\00", align 1
@.str.52 = private unnamed_addr constant [31 x i8] c"undefined group <%n> reference\00", align 1
@.str.53 = private unnamed_addr constant [28 x i8] c"multiplex defined name <%n>\00", align 1
@.str.54 = private unnamed_addr constant [36 x i8] c"multiplex definition name <%n> call\00", align 1
@.str.55 = private unnamed_addr constant [23 x i8] c"never ending recursion\00", align 1
@.str.56 = private unnamed_addr constant [44 x i8] c"group number is too big for capture history\00", align 1
@.str.57 = private unnamed_addr constant [37 x i8] c"invalid character property name {%n}\00", align 1
@.str.58 = private unnamed_addr constant [38 x i8] c"too many capture groups are specified\00", align 1
@.str.59 = private unnamed_addr constant [25 x i8] c"invalid code point value\00", align 1
@.str.60 = private unnamed_addr constant [24 x i8] c"too big wide-char value\00", align 1
@.str.61 = private unnamed_addr constant [35 x i8] c"not supported encoding combination\00", align 1
@.str.62 = private unnamed_addr constant [31 x i8] c"invalid combination of options\00", align 1
@.str.63 = private unnamed_addr constant [21 x i8] c"undefined error code\00", align 1

; Function Attrs: nounwind sspstrong uwtable
define dso_local ptr @onig_error_code_to_format(i64 noundef %0) #0 {
  %2 = alloca ptr, align 8
  %3 = alloca i64, align 8
  %4 = alloca ptr, align 8
  %5 = alloca i32, align 4
  store i64 %0, ptr %3, align 8, !tbaa !7
  call void @llvm.lifetime.start.p0(i64 8, ptr %4) #7
  %6 = load i64, ptr %3, align 8, !tbaa !7
  %7 = icmp sge i64 %6, 0
  br i1 %7, label %8, label %9

8:                                                ; preds = %1
  store ptr null, ptr %2, align 8
  store i32 1, ptr %5, align 4
  br label %77

9:                                                ; preds = %1
  %10 = load i64, ptr %3, align 8, !tbaa !7
  switch i64 %10, label %74 [
    i64 -1, label %11
    i64 -2, label %12
    i64 -5, label %13
    i64 -6, label %14
    i64 -11, label %15
    i64 -12, label %16
    i64 -13, label %17
    i64 -14, label %18
    i64 -15, label %19
    i64 -16, label %20
    i64 -21, label %21
    i64 -22, label %22
    i64 -30, label %23
    i64 -100, label %24
    i64 -101, label %25
    i64 -102, label %26
    i64 -103, label %27
    i64 -104, label %28
    i64 -105, label %29
    i64 -106, label %30
    i64 -108, label %31
    i64 -109, label %32
    i64 -110, label %33
    i64 -111, label %34
    i64 -112, label %35
    i64 -113, label %36
    i64 -114, label %37
    i64 -115, label %38
    i64 -116, label %39
    i64 -117, label %40
    i64 -118, label %41
    i64 -119, label %42
    i64 -121, label %43
    i64 -122, label %44
    i64 -123, label %45
    i64 -124, label %46
    i64 -200, label %47
    i64 -201, label %48
    i64 -202, label %49
    i64 -203, label %50
    i64 -204, label %51
    i64 -205, label %52
    i64 -206, label %53
    i64 -207, label %54
    i64 -208, label %55
    i64 -209, label %56
    i64 -211, label %57
    i64 -212, label %58
    i64 -214, label %59
    i64 -215, label %60
    i64 -216, label %61
    i64 -217, label %62
    i64 -218, label %63
    i64 -219, label %64
    i64 -220, label %65
    i64 -221, label %66
    i64 -222, label %67
    i64 -223, label %68
    i64 -210, label %69
    i64 -400, label %70
    i64 -401, label %71
    i64 -402, label %72
    i64 -403, label %73
  ]

11:                                               ; preds = %9
  store ptr @.str, ptr %4, align 8, !tbaa !11
  br label %75

12:                                               ; preds = %9
  store ptr @.str.1, ptr %4, align 8, !tbaa !11
  br label %75

13:                                               ; preds = %9
  store ptr @.str.2, ptr %4, align 8, !tbaa !11
  br label %75

14:                                               ; preds = %9
  store ptr @.str.3, ptr %4, align 8, !tbaa !11
  br label %75

15:                                               ; preds = %9
  store ptr @.str.4, ptr %4, align 8, !tbaa !11
  br label %75

16:                                               ; preds = %9
  store ptr @.str.5, ptr %4, align 8, !tbaa !11
  br label %75

17:                                               ; preds = %9
  store ptr @.str.6, ptr %4, align 8, !tbaa !11
  br label %75

18:                                               ; preds = %9
  store ptr @.str.7, ptr %4, align 8, !tbaa !11
  br label %75

19:                                               ; preds = %9
  store ptr @.str.8, ptr %4, align 8, !tbaa !11
  br label %75

20:                                               ; preds = %9
  store ptr @.str.9, ptr %4, align 8, !tbaa !11
  br label %75

21:                                               ; preds = %9
  store ptr @.str.10, ptr %4, align 8, !tbaa !11
  br label %75

22:                                               ; preds = %9
  store ptr @.str.11, ptr %4, align 8, !tbaa !11
  br label %75

23:                                               ; preds = %9
  store ptr @.str.12, ptr %4, align 8, !tbaa !11
  br label %75

24:                                               ; preds = %9
  store ptr @.str.13, ptr %4, align 8, !tbaa !11
  br label %75

25:                                               ; preds = %9
  store ptr @.str.14, ptr %4, align 8, !tbaa !11
  br label %75

26:                                               ; preds = %9
  store ptr @.str.15, ptr %4, align 8, !tbaa !11
  br label %75

27:                                               ; preds = %9
  store ptr @.str.16, ptr %4, align 8, !tbaa !11
  br label %75

28:                                               ; preds = %9
  store ptr @.str.17, ptr %4, align 8, !tbaa !11
  br label %75

29:                                               ; preds = %9
  store ptr @.str.18, ptr %4, align 8, !tbaa !11
  br label %75

30:                                               ; preds = %9
  store ptr @.str.19, ptr %4, align 8, !tbaa !11
  br label %75

31:                                               ; preds = %9
  store ptr @.str.20, ptr %4, align 8, !tbaa !11
  br label %75

32:                                               ; preds = %9
  store ptr @.str.21, ptr %4, align 8, !tbaa !11
  br label %75

33:                                               ; preds = %9
  store ptr @.str.22, ptr %4, align 8, !tbaa !11
  br label %75

34:                                               ; preds = %9
  store ptr @.str.23, ptr %4, align 8, !tbaa !11
  br label %75

35:                                               ; preds = %9
  store ptr @.str.24, ptr %4, align 8, !tbaa !11
  br label %75

36:                                               ; preds = %9
  store ptr @.str.25, ptr %4, align 8, !tbaa !11
  br label %75

37:                                               ; preds = %9
  store ptr @.str.26, ptr %4, align 8, !tbaa !11
  br label %75

38:                                               ; preds = %9
  store ptr @.str.27, ptr %4, align 8, !tbaa !11
  br label %75

39:                                               ; preds = %9
  store ptr @.str.28, ptr %4, align 8, !tbaa !11
  br label %75

40:                                               ; preds = %9
  store ptr @.str.29, ptr %4, align 8, !tbaa !11
  br label %75

41:                                               ; preds = %9
  store ptr @.str.30, ptr %4, align 8, !tbaa !11
  br label %75

42:                                               ; preds = %9
  store ptr @.str.31, ptr %4, align 8, !tbaa !11
  br label %75

43:                                               ; preds = %9
  store ptr @.str.32, ptr %4, align 8, !tbaa !11
  br label %75

44:                                               ; preds = %9
  store ptr @.str.33, ptr %4, align 8, !tbaa !11
  br label %75

45:                                               ; preds = %9
  store ptr @.str.34, ptr %4, align 8, !tbaa !11
  br label %75

46:                                               ; preds = %9
  store ptr @.str.35, ptr %4, align 8, !tbaa !11
  br label %75

47:                                               ; preds = %9
  store ptr @.str.36, ptr %4, align 8, !tbaa !11
  br label %75

48:                                               ; preds = %9
  store ptr @.str.37, ptr %4, align 8, !tbaa !11
  br label %75

49:                                               ; preds = %9
  store ptr @.str.38, ptr %4, align 8, !tbaa !11
  br label %75

50:                                               ; preds = %9
  store ptr @.str.39, ptr %4, align 8, !tbaa !11
  br label %75

51:                                               ; preds = %9
  store ptr @.str.40, ptr %4, align 8, !tbaa !11
  br label %75

52:                                               ; preds = %9
  store ptr @.str.41, ptr %4, align 8, !tbaa !11
  br label %75

53:                                               ; preds = %9
  store ptr @.str.42, ptr %4, align 8, !tbaa !11
  br label %75

54:                                               ; preds = %9
  store ptr @.str.43, ptr %4, align 8, !tbaa !11
  br label %75

55:                                               ; preds = %9
  store ptr @.str.44, ptr %4, align 8, !tbaa !11
  br label %75

56:                                               ; preds = %9
  store ptr @.str.45, ptr %4, align 8, !tbaa !11
  br label %75

57:                                               ; preds = %9
  store ptr @.str.46, ptr %4, align 8, !tbaa !11
  br label %75

58:                                               ; preds = %9
  store ptr @.str.47, ptr %4, align 8, !tbaa !11
  br label %75

59:                                               ; preds = %9
  store ptr @.str.48, ptr %4, align 8, !tbaa !11
  br label %75

60:                                               ; preds = %9
  store ptr @.str.49, ptr %4, align 8, !tbaa !11
  br label %75

61:                                               ; preds = %9
  store ptr @.str.50, ptr %4, align 8, !tbaa !11
  br label %75

62:                                               ; preds = %9
  store ptr @.str.51, ptr %4, align 8, !tbaa !11
  br label %75

63:                                               ; preds = %9
  store ptr @.str.52, ptr %4, align 8, !tbaa !11
  br label %75

64:                                               ; preds = %9
  store ptr @.str.53, ptr %4, align 8, !tbaa !11
  br label %75

65:                                               ; preds = %9
  store ptr @.str.54, ptr %4, align 8, !tbaa !11
  br label %75

66:                                               ; preds = %9
  store ptr @.str.55, ptr %4, align 8, !tbaa !11
  br label %75

67:                                               ; preds = %9
  store ptr @.str.56, ptr %4, align 8, !tbaa !11
  br label %75

68:                                               ; preds = %9
  store ptr @.str.57, ptr %4, align 8, !tbaa !11
  br label %75

69:                                               ; preds = %9
  store ptr @.str.58, ptr %4, align 8, !tbaa !11
  br label %75

70:                                               ; preds = %9
  store ptr @.str.59, ptr %4, align 8, !tbaa !11
  br label %75

71:                                               ; preds = %9
  store ptr @.str.60, ptr %4, align 8, !tbaa !11
  br label %75

72:                                               ; preds = %9
  store ptr @.str.61, ptr %4, align 8, !tbaa !11
  br label %75

73:                                               ; preds = %9
  store ptr @.str.62, ptr %4, align 8, !tbaa !11
  br label %75

74:                                               ; preds = %9
  store ptr @.str.63, ptr %4, align 8, !tbaa !11
  br label %75

75:                                               ; preds = %74, %73, %72, %71, %70, %69, %68, %67, %66, %65, %64, %63, %62, %61, %60, %59, %58, %57, %56, %55, %54, %53, %52, %51, %50, %49, %48, %47, %46, %45, %44, %43, %42, %41, %40, %39, %38, %37, %36, %35, %34, %33, %32, %31, %30, %29, %28, %27, %26, %25, %24, %23, %22, %21, %20, %19, %18, %17, %16, %15, %14, %13, %12, %11
  %76 = load ptr, ptr %4, align 8, !tbaa !11
  store ptr %76, ptr %2, align 8
  store i32 1, ptr %5, align 4
  br label %77

77:                                               ; preds = %75, %8
  call void @llvm.lifetime.end.p0(i64 8, ptr %4) #7
  %78 = load ptr, ptr %2, align 8
  ret ptr %78
}