; Function Attrs: mustprogress nofree norecurse nosync nounwind sspstrong willreturn memory(none) uwtable
define dso_local noundef ptr @onig_error_code_to_format(i64 noundef %0) local_unnamed_addr #0 {
  %2 = icmp sgt i64 %0, -1
  br i1 %2, label %67, label %3

3:                                                ; preds = %1
  switch i64 %0, label %66 [
    i64 -1, label %67
    i64 -2, label %4
    i64 -5, label %5
    i64 -6, label %6
    i64 -11, label %7
    i64 -12, label %8
    i64 -13, label %9
    i64 -14, label %10
    i64 -15, label %11
    i64 -16, label %12
    i64 -21, label %13
    i64 -22, label %14
    i64 -30, label %15
    i64 -100, label %16
    i64 -101, label %17
    i64 -102, label %18
    i64 -103, label %19
    i64 -104, label %20
    i64 -105, label %21
    i64 -106, label %22
    i64 -108, label %23
    i64 -109, label %24
    i64 -110, label %25
    i64 -111, label %26
    i64 -112, label %27
    i64 -113, label %28
    i64 -114, label %29
    i64 -115, label %30
    i64 -116, label %31
    i64 -117, label %32
    i64 -118, label %33
    i64 -119, label %34
    i64 -121, label %35
    i64 -122, label %36
    i64 -123, label %37
    i64 -124, label %38
    i64 -200, label %39
    i64 -201, label %40
    i64 -202, label %41
    i64 -203, label %42
    i64 -204, label %43
    i64 -205, label %44
    i64 -206, label %45
    i64 -207, label %46
    i64 -208, label %47
    i64 -209, label %48
    i64 -211, label %49
    i64 -212, label %50
    i64 -214, label %51
    i64 -215, label %52
    i64 -216, label %53
    i64 -217, label %54
    i64 -218, label %55
    i64 -219, label %56
    i64 -220, label %57
    i64 -221, label %58
    i64 -222, label %59
    i64 -223, label %60
    i64 -210, label %61
    i64 -400, label %62
    i64 -401, label %63
    i64 -402, label %64
    i64 -403, label %65
  ]

4:                                                ; preds = %3
  br label %67

5:                                                ; preds = %3
  br label %67

6:                                                ; preds = %3
  br label %67

7:                                                ; preds = %3
  br label %67

8:                                                ; preds = %3
  br label %67

9:                                                ; preds = %3
  br label %67

10:                                               ; preds = %3
  br label %67

11:                                               ; preds = %3
  br label %67

12:                                               ; preds = %3
  br label %67

13:                                               ; preds = %3
  br label %67

14:                                               ; preds = %3
  br label %67

15:                                               ; preds = %3
  br label %67

16:                                               ; preds = %3
  br label %67

17:                                               ; preds = %3
  br label %67

18:                                               ; preds = %3
  br label %67

19:                                               ; preds = %3
  br label %67

20:                                               ; preds = %3
  br label %67

21:                                               ; preds = %3
  br label %67

22:                                               ; preds = %3
  br label %67

23:                                               ; preds = %3
  br label %67

24:                                               ; preds = %3
  br label %67

25:                                               ; preds = %3
  br label %67

26:                                               ; preds = %3
  br label %67

27:                                               ; preds = %3
  br label %67

28:                                               ; preds = %3
  br label %67

29:                                               ; preds = %3
  br label %67

30:                                               ; preds = %3
  br label %67

31:                                               ; preds = %3
  br label %67

32:                                               ; preds = %3
  br label %67

33:                                               ; preds = %3
  br label %67

34:                                               ; preds = %3
  br label %67

35:                                               ; preds = %3
  br label %67

36:                                               ; preds = %3
  br label %67

37:                                               ; preds = %3
  br label %67

38:                                               ; preds = %3
  br label %67

39:                                               ; preds = %3
  br label %67

40:                                               ; preds = %3
  br label %67

41:                                               ; preds = %3
  br label %67

42:                                               ; preds = %3
  br label %67

43:                                               ; preds = %3
  br label %67

44:                                               ; preds = %3
  br label %67

45:                                               ; preds = %3
  br label %67

46:                                               ; preds = %3
  br label %67

47:                                               ; preds = %3
  br label %67

48:                                               ; preds = %3
  br label %67

49:                                               ; preds = %3
  br label %67

50:                                               ; preds = %3
  br label %67

51:                                               ; preds = %3
  br label %67

52:                                               ; preds = %3
  br label %67

53:                                               ; preds = %3
  br label %67

54:                                               ; preds = %3
  br label %67

55:                                               ; preds = %3
  br label %67

56:                                               ; preds = %3
  br label %67

57:                                               ; preds = %3
  br label %67

58:                                               ; preds = %3
  br label %67

59:                                               ; preds = %3
  br label %67

60:                                               ; preds = %3
  br label %67

61:                                               ; preds = %3
  br label %67

62:                                               ; preds = %3
  br label %67

63:                                               ; preds = %3
  br label %67

64:                                               ; preds = %3
  br label %67

65:                                               ; preds = %3
  br label %67

66:                                               ; preds = %3
  br label %67

67:                                               ; preds = %4, %5, %6, %7, %8, %9, %10, %11, %12, %13, %14, %15, %16, %17, %18, %19, %20, %21, %22, %23, %24, %25, %26, %27, %28, %29, %30, %31, %32, %33, %34, %35, %36, %37, %38, %39, %40, %41, %42, %43, %44, %45, %46, %47, %48, %49, %50, %51, %52, %53, %54, %55, %56, %57, %58, %59, %60, %61, %62, %63, %64, %65, %66, %3, %1
  %.03 = phi ptr [ null, %1 ], [ @.str.63, %66 ], [ @.str.62, %65 ], [ @.str.61, %64 ], [ @.str.60, %63 ], [ @.str.59, %62 ], [ @.str.58, %61 ], [ @.str.57, %60 ], [ @.str.56, %59 ], [ @.str.55, %58 ], [ @.str.54, %57 ], [ @.str.53, %56 ], [ @.str.52, %55 ], [ @.str.51, %54 ], [ @.str.50, %53 ], [ @.str.49, %52 ], [ @.str.48, %51 ], [ @.str.47, %50 ], [ @.str.46, %49 ], [ @.str.45, %48 ], [ @.str.44, %47 ], [ @.str.43, %46 ], [ @.str.42, %45 ], [ @.str.41, %44 ], [ @.str.40, %43 ], [ @.str.39, %42 ], [ @.str.38, %41 ], [ @.str.37, %40 ], [ @.str.36, %39 ], [ @.str.35, %38 ], [ @.str.34, %37 ], [ @.str.33, %36 ], [ @.str.32, %35 ], [ @.str.31, %34 ], [ @.str.30, %33 ], [ @.str.29, %32 ], [ @.str.28, %31 ], [ @.str.27, %30 ], [ @.str.26, %29 ], [ @.str.25, %28 ], [ @.str.24, %27 ], [ @.str.23, %26 ], [ @.str.22, %25 ], [ @.str.21, %24 ], [ @.str.20, %23 ], [ @.str.19, %22 ], [ @.str.18, %21 ], [ @.str.17, %20 ], [ @.str.16, %19 ], [ @.str.15, %18 ], [ @.str.14, %17 ], [ @.str.13, %16 ], [ @.str.12, %15 ], [ @.str.11, %14 ], [ @.str.10, %13 ], [ @.str.9, %12 ], [ @.str.8, %11 ], [ @.str.7, %10 ], [ @.str.6, %9 ], [ @.str.5, %8 ], [ @.str.4, %7 ], [ @.str.3, %6 ], [ @.str.2, %5 ], [ @.str.1, %4 ], [ @.str, %3 ]
  ret ptr %.03
}